target datalayout = "e-m:e-p270:32:32-p271:32:32-p272:64:64-i64:64-i128:128-f80:128-n8:16:32:64-S128"
target triple = "x86_64-pc-linux-gnu"

%struct.mbedtls_cipher_info_t = type { ptr, i32 }
%struct.mbedtls_cipher_base_t = type { i32, ptr, ptr, ptr, ptr, ptr, ptr, ptr, ptr, ptr, ptr, ptr }
%struct.mbedtls_cipher_context_t = type { ptr, i32, i32, ptr, ptr, [16 x i8], i64, [16 x i8], i64, ptr, ptr }

@mbedtls_cipher_base_lookup_table = external global [0 x ptr], align 8

; Function Attrs: inlinehint nounwind uwtable
define internal ptr @mbedtls_cipher_get_base(ptr noundef %0) #3 {
  %2 = alloca ptr, align 8
  store ptr %0, ptr %2, align 8, !tbaa !26
  %3 = load ptr, ptr %2, align 8, !tbaa !26
  %4 = getelementptr inbounds nuw %struct.mbedtls_cipher_info_t, ptr %3, i32 0, i32 1
  %5 = load i32, ptr %4, align 8
  %6 = lshr i32 %5, 26
  %7 = and i32 %6, 31
  %8 = zext i32 %7 to i64
  %9 = getelementptr inbounds nuw [0 x ptr], ptr @mbedtls_cipher_base_lookup_table, i64 0, i64 %8
  %10 = load ptr, ptr %9, align 8, !tbaa !27
  ret ptr %10
}

; Function Attrs: nounwind uwtable
define hidden i32 @mbedtls_cipher_setup(ptr noundef %0, ptr noundef %1) #0 {
  %3 = alloca i32, align 4
  %4 = alloca ptr, align 8
  %5 = alloca ptr, align 8
  store ptr %0, ptr %4, align 8, !tbaa !29
  store ptr %1, ptr %5, align 8, !tbaa !26
  %6 = load ptr, ptr %5, align 8, !tbaa !26
  %7 = icmp eq ptr %6, null
  br i1 %7, label %8, label %9

8:                                                ; preds = %2
  store i32 -24832, ptr %3, align 4
  br label %34

9:                                                ; preds = %2
  %10 = load ptr, ptr %4, align 8, !tbaa !29
  call void @llvm.memset.p0.i64(ptr align 8 %10, i8 0, i64 96, i1 false)
  %11 = load ptr, ptr %5, align 8, !tbaa !26
  %12 = call ptr @mbedtls_cipher_get_base(ptr noundef %11)
  %13 = getelementptr inbounds nuw %struct.mbedtls_cipher_base_t, ptr %12, i32 0, i32 10
  %14 = load ptr, ptr %13, align 8, !tbaa !38
  %15 = icmp ne ptr %14, null
  br i1 %15, label %16, label %30

16:                                               ; preds = %9
  %17 = load ptr, ptr %5, align 8, !tbaa !26
  %18 = call ptr @mbedtls_cipher_get_base(ptr noundef %17)
  %19 = getelementptr inbounds nuw %struct.mbedtls_cipher_base_t, ptr %18, i32 0, i32 10
  %20 = load ptr, ptr %19, align 8, !tbaa !38
  %21 = call ptr %20()
  %22 = load ptr, ptr %4, align 8, !tbaa !29
  %23 = getelementptr inbounds nuw %struct.mbedtls_cipher_context_t, ptr %22, i32 0, i32 9
  store ptr %21, ptr %23, align 8, !tbaa !35
  %24 = load ptr, ptr %4, align 8, !tbaa !29
  %25 = getelementptr inbounds nuw %struct.mbedtls_cipher_context_t, ptr %24, i32 0, i32 9
  %26 = load ptr, ptr %25, align 8, !tbaa !35
  %27 = icmp eq ptr %26, null
  br i1 %27, label %28, label %29

28:                                               ; preds = %16
  store i32 -24960, ptr %3, align 4
  br label %34

29:                                               ; preds = %16
  br label %30

30:                                               ; preds = %29, %9
  %31 = load ptr, ptr %5, align 8, !tbaa !26
  %32 = load ptr, ptr %4, align 8, !tbaa !29
  %33 = getelementptr inbounds nuw %struct.mbedtls_cipher_context_t, ptr %32, i32 0, i32 0
  store ptr %31, ptr %33, align 8, !tbaa !36
  store i32 0, ptr %3, align 4
  br label %34

34:                                               ; preds = %30, %28, %8
  %35 = load i32, ptr %3, align 4
  ret i32 %35
}