; Function Attrs: nounwind uwtable
define hidden range(i32 -24960, 1) i32 @mbedtls_cipher_setup(ptr noundef writeonly captures(none) %0, ptr noundef %1) local_unnamed_addr #8 {
  %3 = icmp eq ptr %1, null
  br i1 %3, label %18, label %4

4:                                                ; preds = %2
  tail call void @llvm.memset.p0.i64(ptr noundef nonnull align 8 dereferenceable(96) %0, i8 0, i64 96, i1 false)
  %5 = getelementptr i8, ptr %1, i64 8
  %.val9 = load i32, ptr %5, align 8
  %6 = lshr i32 %.val9, 26
  %7 = and i32 %6, 31
  %8 = zext nneg i32 %7 to i64
  %9 = getelementptr inbounds nuw [0 x ptr], ptr @mbedtls_cipher_base_lookup_table, i64 0, i64 %8
  %10 = load ptr, ptr %9, align 8, !tbaa !19
  %11 = getelementptr inbounds nuw i8, ptr %10, i64 80
  %12 = load ptr, ptr %11, align 8, !tbaa !31
  %.not = icmp eq ptr %12, null
  br i1 %.not, label %17, label %13

13:                                               ; preds = %4
  %14 = tail call ptr %12() #15
  %15 = getelementptr inbounds nuw i8, ptr %0, i64 80
  store ptr %14, ptr %15, align 8, !tbaa !28
  %16 = icmp eq ptr %14, null
  br i1 %16, label %18, label %17

17:                                               ; preds = %13, %4
  store ptr %1, ptr %0, align 8, !tbaa !29
  br label %18

18:                                               ; preds = %13, %2, %17
  %.0 = phi i32 [ 0, %17 ], [ -24832, %2 ], [ -24960, %13 ]
  ret i32 %.0
}